target datalayout = "e-m:e-p270:32:32-p271:32:32-p272:64:64-i64:64-i128:128-f80:128-n8:16:32:64-S128"
target triple = "x86_64-pc-linux-gnu"

%struct.FT_Vector_ = type { i64, i64 }
%struct.SDF_Shape_ = type { ptr, ptr }
%struct.SDF_Contour_ = type { %struct.FT_Vector_, ptr, ptr }
%struct.SDF_Edge_ = type { %struct.FT_Vector_, %struct.FT_Vector_, %struct.FT_Vector_, %struct.FT_Vector_, i32, ptr }

; Function Attrs: nounwind uwtable
define internal void @sdf_edge_done(ptr noundef %0, ptr noundef %1) #0 {
  %3 = alloca ptr, align 8
  %4 = alloca ptr, align 8
  store ptr %0, ptr %3, align 8, !tbaa !38
  store ptr %1, ptr %4, align 8, !tbaa !192
  %5 = load ptr, ptr %3, align 8, !tbaa !38
  %6 = icmp ne ptr %5, null
  br i1 %6, label %7, label %14

7:                                                ; preds = %2
  %8 = load ptr, ptr %4, align 8, !tbaa !192
  %9 = icmp ne ptr %8, null
  br i1 %9, label %10, label %14

10:                                               ; preds = %7
  %11 = load ptr, ptr %4, align 8, !tbaa !192
  %12 = load ptr, ptr %11, align 8, !tbaa !182
  %13 = icmp ne ptr %12, null
  br i1 %13, label %15, label %14

14:                                               ; preds = %10, %7, %2
  br label %21

15:                                               ; preds = %10
  br label %16

16:                                               ; preds = %15
  %17 = load ptr, ptr %3, align 8, !tbaa !38
  %18 = load ptr, ptr %4, align 8, !tbaa !192
  %19 = load ptr, ptr %18, align 8, !tbaa !182
  call void @ft_mem_free(ptr noundef %17, ptr noundef %19)
  %20 = load ptr, ptr %4, align 8, !tbaa !192
  store ptr null, ptr %20, align 8, !tbaa !182
  br label %21

21:                                               ; preds = %14, %16
  ret void
}

; Function Attrs: nounwind uwtable
define internal void @sdf_contour_done(ptr noundef %0, ptr noundef %1) #0 {
  %3 = alloca ptr, align 8
  %4 = alloca ptr, align 8
  %5 = alloca ptr, align 8
  %6 = alloca ptr, align 8
  %7 = alloca i32, align 4
  store ptr %0, ptr %3, align 8, !tbaa !38
  store ptr %1, ptr %4, align 8, !tbaa !189
  call void @llvm.lifetime.start.p0(i64 8, ptr %5) #7
  call void @llvm.lifetime.start.p0(i64 8, ptr %6) #7
  %8 = load ptr, ptr %3, align 8, !tbaa !38
  %9 = icmp ne ptr %8, null
  br i1 %9, label %10, label %17

10:                                               ; preds = %2
  %11 = load ptr, ptr %4, align 8, !tbaa !189
  %12 = icmp ne ptr %11, null
  br i1 %12, label %13, label %17

13:                                               ; preds = %10
  %14 = load ptr, ptr %4, align 8, !tbaa !189
  %15 = load ptr, ptr %14, align 8, !tbaa !167
  %16 = icmp ne ptr %15, null
  br i1 %16, label %18, label %17

17:                                               ; preds = %13, %10, %2
  store i32 1, ptr %7, align 4
  br label %40

18:                                               ; preds = %13
  %19 = load ptr, ptr %4, align 8, !tbaa !189
  %20 = load ptr, ptr %19, align 8, !tbaa !167
  %21 = getelementptr inbounds nuw %struct.SDF_Contour_, ptr %20, i32 0, i32 1
  %22 = load ptr, ptr %21, align 8, !tbaa !187
  store ptr %22, ptr %5, align 8, !tbaa !182
  br label %23

23:                                               ; preds = %26, %18
  %24 = load ptr, ptr %5, align 8, !tbaa !182
  %25 = icmp ne ptr %24, null
  br i1 %25, label %26, label %32

26:                                               ; preds = %23
  %27 = load ptr, ptr %5, align 8, !tbaa !182
  store ptr %27, ptr %6, align 8, !tbaa !182
  %28 = load ptr, ptr %5, align 8, !tbaa !182
  %29 = getelementptr inbounds nuw %struct.SDF_Edge_, ptr %28, i32 0, i32 5
  %30 = load ptr, ptr %29, align 8, !tbaa !188
  store ptr %30, ptr %5, align 8, !tbaa !182
  %31 = load ptr, ptr %3, align 8, !tbaa !38
  call void @sdf_edge_done(ptr noundef %31, ptr noundef %6)
  br label %23, !llvm.loop !224

32:                                               ; preds = %23
  br label %33

33:                                               ; preds = %32
  %34 = load ptr, ptr %3, align 8, !tbaa !38
  %35 = load ptr, ptr %4, align 8, !tbaa !189
  %36 = load ptr, ptr %35, align 8, !tbaa !167
  call void @ft_mem_free(ptr noundef %34, ptr noundef %36)
  %37 = load ptr, ptr %4, align 8, !tbaa !189
  store ptr null, ptr %37, align 8, !tbaa !167
  br label %38

38:                                               ; preds = %33
  br label %39

39:                                               ; preds = %38
  store i32 0, ptr %7, align 4
  br label %40

40:                                               ; preds = %39, %17
  call void @llvm.lifetime.end.p0(i64 8, ptr %6) #7
  call void @llvm.lifetime.end.p0(i64 8, ptr %5) #7
  %41 = load i32, ptr %7, align 4
  switch i32 %41, label %43 [
    i32 0, label %42
    i32 1, label %42
  ]

42:                                               ; preds = %40, %40
  ret void

43:                                               ; preds = %40
  unreachable
}

; Function Attrs: nounwind uwtable
define internal void @sdf_shape_done(ptr noundef %0) #0 {
  %2 = alloca ptr, align 8
  %3 = alloca ptr, align 8
  %4 = alloca ptr, align 8
  %5 = alloca ptr, align 8
  %6 = alloca i32, align 4
  store ptr %0, ptr %2, align 8, !tbaa !164
  call void @llvm.lifetime.start.p0(i64 8, ptr %3) #7
  call void @llvm.lifetime.start.p0(i64 8, ptr %4) #7
  call void @llvm.lifetime.start.p0(i64 8, ptr %5) #7
  %7 = load ptr, ptr %2, align 8, !tbaa !164
  %8 = icmp ne ptr %7, null
  br i1 %8, label %9, label %13

9:                                                ; preds = %1
  %10 = load ptr, ptr %2, align 8, !tbaa !164
  %11 = load ptr, ptr %10, align 8, !tbaa !121
  %12 = icmp ne ptr %11, null
  br i1 %12, label %14, label %13

13:                                               ; preds = %9, %1
  store i32 1, ptr %6, align 4
  br label %44

14:                                               ; preds = %9
  %15 = load ptr, ptr %2, align 8, !tbaa !164
  %16 = load ptr, ptr %15, align 8, !tbaa !121
  %17 = getelementptr inbounds nuw %struct.SDF_Shape_, ptr %16, i32 0, i32 0
  %18 = load ptr, ptr %17, align 8, !tbaa !169
  store ptr %18, ptr %3, align 8, !tbaa !38
  %19 = load ptr, ptr %2, align 8, !tbaa !164
  %20 = load ptr, ptr %19, align 8, !tbaa !121
  %21 = getelementptr inbounds nuw %struct.SDF_Shape_, ptr %20, i32 0, i32 1
  %22 = load ptr, ptr %21, align 8, !tbaa !171
  store ptr %22, ptr %4, align 8, !tbaa !167
  %23 = load ptr, ptr %3, align 8, !tbaa !38
  %24 = icmp ne ptr %23, null
  br i1 %24, label %26, label %25

25:                                               ; preds = %14
  store i32 1, ptr %6, align 4
  br label %44

26:                                               ; preds = %14
  br label %27

27:                                               ; preds = %30, %26
  %28 = load ptr, ptr %4, align 8, !tbaa !167
  %29 = icmp ne ptr %28, null
  br i1 %29, label %30, label %36

30:                                               ; preds = %27
  %31 = load ptr, ptr %4, align 8, !tbaa !167
  store ptr %31, ptr %5, align 8, !tbaa !167
  %32 = load ptr, ptr %4, align 8, !tbaa !167
  %33 = getelementptr inbounds nuw %struct.SDF_Contour_, ptr %32, i32 0, i32 2
  %34 = load ptr, ptr %33, align 8, !tbaa !172
  store ptr %34, ptr %4, align 8, !tbaa !167
  %35 = load ptr, ptr %3, align 8, !tbaa !38
  call void @sdf_contour_done(ptr noundef %35, ptr noundef %5)
  br label %27, !llvm.loop !181

36:                                               ; preds = %27
  br label %37

37:                                               ; preds = %36
  %38 = load ptr, ptr %3, align 8, !tbaa !38
  %39 = load ptr, ptr %2, align 8, !tbaa !164
  %40 = load ptr, ptr %39, align 8, !tbaa !121
  call void @ft_mem_free(ptr noundef %38, ptr noundef %40)
  %41 = load ptr, ptr %2, align 8, !tbaa !164
  store ptr null, ptr %41, align 8, !tbaa !121
  br label %42

42:                                               ; preds = %37
  br label %43

43:                                               ; preds = %42
  store i32 0, ptr %6, align 4
  br label %44

44:                                               ; preds = %43, %25, %13
  call void @llvm.lifetime.end.p0(i64 8, ptr %5) #7
  call void @llvm.lifetime.end.p0(i64 8, ptr %4) #7
  call void @llvm.lifetime.end.p0(i64 8, ptr %3) #7
  %45 = load i32, ptr %6, align 4
  switch i32 %45, label %47 [
    i32 0, label %46
    i32 1, label %46
  ]

46:                                               ; preds = %44, %44
  ret void

47:                                               ; preds = %44
  unreachable
}