; Function Attrs: nounwind uwtable
define internal fastcc void @sdf_shape_done(ptr noundef nonnull captures(none) %0) unnamed_addr #2 {
  %2 = load ptr, ptr %0, align 8, !tbaa !102
  %.not = icmp eq ptr %2, null
  br i1 %.not, label %14, label %3

3:                                                ; preds = %1
  %4 = load ptr, ptr %2, align 8, !tbaa !99
  %.not14 = icmp eq ptr %4, null
  br i1 %.not14, label %14, label %.preheader

.preheader:                                       ; preds = %3
  %5 = getelementptr inbounds nuw i8, ptr %2, i64 8
  %6 = load ptr, ptr %5, align 8, !tbaa !129
  %.not1516 = icmp eq ptr %6, null
  br i1 %.not1516, label %._crit_edge, label %.lr.ph

.lr.ph:                                           ; preds = %.preheader, %sdf_contour_done.exit
  %.017 = phi ptr [ %8, %sdf_contour_done.exit ], [ %6, %.preheader ]
  %7 = getelementptr inbounds nuw i8, ptr %.017, i64 24
  %8 = load ptr, ptr %7, align 8, !tbaa !130
  %9 = getelementptr inbounds nuw i8, ptr %.017, i64 16
  %10 = load ptr, ptr %9, align 8, !tbaa !135
  %.not1617.i = icmp eq ptr %10, null
  br i1 %.not1617.i, label %sdf_contour_done.exit, label %sdf_edge_done.exit.i

sdf_edge_done.exit.i:                             ; preds = %.lr.ph, %sdf_edge_done.exit.i
  %.018.i = phi ptr [ %12, %sdf_edge_done.exit.i ], [ %10, %.lr.ph ]
  %11 = getelementptr inbounds nuw i8, ptr %.018.i, i64 72
  %12 = load ptr, ptr %11, align 8, !tbaa !146
  tail call void @ft_mem_free(ptr noundef nonnull %4, ptr noundef nonnull %.018.i) #11
  %.not16.i = icmp eq ptr %12, null
  br i1 %.not16.i, label %sdf_contour_done.exit, label %sdf_edge_done.exit.i, !llvm.loop !156

sdf_contour_done.exit:                            ; preds = %sdf_edge_done.exit.i, %.lr.ph
  tail call void @ft_mem_free(ptr noundef nonnull %4, ptr noundef nonnull %.017) #11
  %.not15 = icmp eq ptr %8, null
  br i1 %.not15, label %._crit_edge.loopexit, label %.lr.ph, !llvm.loop !170

._crit_edge.loopexit:                             ; preds = %sdf_contour_done.exit
  %.pre = load ptr, ptr %0, align 8, !tbaa !102
  br label %._crit_edge

._crit_edge:                                      ; preds = %._crit_edge.loopexit, %.preheader
  %13 = phi ptr [ %.pre, %._crit_edge.loopexit ], [ %2, %.preheader ]
  tail call void @ft_mem_free(ptr noundef nonnull %4, ptr noundef %13) #11
  store ptr null, ptr %0, align 8, !tbaa !102
  br label %14

14:                                               ; preds = %3, %1, %._crit_edge
  ret void
}